target datalayout = "e-m:e-p270:32:32-p271:32:32-p272:64:64-i64:64-i128:128-f80:128-n8:16:32:64-S128"
target triple = "x86_64-pc-linux-gnu"

%struct.H5G_dense_bt2_name_rec_t = type { [7 x i8], i32 }
%struct.H5G_bt2_ud_gnbi_t = type { ptr, ptr, ptr, i64, i64 }
%struct.H5G_fh_ud_gnbi_t = type { ptr, ptr, i64, i64 }

@.str = private unnamed_addr constant [102 x i8] c"generated/home/dtcxzyw/WorkSpace/Projects/compilers/llvm-opt-benchmark/bench/hdf5/hdf5/src/H5Gdense.c\00", align 1
@H5E_SYM_g = external global i64, align 8
@H5E_CANTOPERATE_g = external global i64, align 8
@.str.41 = private unnamed_addr constant [27 x i8] c"link found callback failed\00", align 1
@__func__.H5G__dense_get_name_by_idx_bt2_cb = private unnamed_addr constant [34 x i8] c"H5G__dense_get_name_by_idx_bt2_cb\00", align 1

; Function Attrs: nounwind uwtable
define internal i32 @H5G__dense_get_name_by_idx_bt2_cb(ptr noundef %0, ptr noundef %1) #0 {
  %3 = alloca ptr, align 8
  %4 = alloca ptr, align 8
  %5 = alloca ptr, align 8
  %6 = alloca ptr, align 8
  %7 = alloca %struct.H5G_fh_ud_gnbi_t, align 8
  %8 = alloca i32, align 4
  %9 = alloca i8, align 1
  store ptr %0, ptr %3, align 8
  store ptr %1, ptr %4, align 8
  %10 = load ptr, ptr %3, align 8
  store ptr %10, ptr %5, align 8
  %11 = load ptr, ptr %4, align 8
  store ptr %11, ptr %6, align 8
  store i32 0, ptr %8, align 4
  store i8 0, ptr %9, align 1
  %12 = load ptr, ptr %6, align 8
  %13 = getelementptr inbounds %struct.H5G_bt2_ud_gnbi_t, ptr %12, i32 0, i32 0
  %14 = load ptr, ptr %13, align 8
  %15 = getelementptr inbounds %struct.H5G_fh_ud_gnbi_t, ptr %7, i32 0, i32 0
  store ptr %14, ptr %15, align 8
  %16 = load ptr, ptr %6, align 8
  %17 = getelementptr inbounds %struct.H5G_bt2_ud_gnbi_t, ptr %16, i32 0, i32 2
  %18 = load ptr, ptr %17, align 8
  %19 = getelementptr inbounds %struct.H5G_fh_ud_gnbi_t, ptr %7, i32 0, i32 1
  store ptr %18, ptr %19, align 8
  %20 = load ptr, ptr %6, align 8
  %21 = getelementptr inbounds %struct.H5G_bt2_ud_gnbi_t, ptr %20, i32 0, i32 3
  %22 = load i64, ptr %21, align 8
  %23 = getelementptr inbounds %struct.H5G_fh_ud_gnbi_t, ptr %7, i32 0, i32 2
  store i64 %22, ptr %23, align 8
  %24 = load ptr, ptr %6, align 8
  %25 = getelementptr inbounds %struct.H5G_bt2_ud_gnbi_t, ptr %24, i32 0, i32 1
  %26 = load ptr, ptr %25, align 8
  %27 = load ptr, ptr %5, align 8
  %28 = getelementptr inbounds %struct.H5G_dense_bt2_name_rec_t, ptr %27, i32 0, i32 0
  %29 = getelementptr inbounds [7 x i8], ptr %28, i64 0, i64 0
  %30 = call i32 @H5HF_op(ptr noundef %26, ptr noundef %29, ptr noundef @H5G__dense_get_name_by_idx_fh_cb, ptr noundef %7)
  %31 = icmp slt i32 %30, 0
  br i1 %31, label %32, label %47

32:                                               ; preds = %2
  br label %33

33:                                               ; preds = %32
  br label %34

34:                                               ; preds = %33
  br label %35

35:                                               ; preds = %34
  %36 = load i64, ptr @H5E_SYM_g, align 8
  %37 = load i64, ptr @H5E_CANTOPERATE_g, align 8
  %38 = call i32 (ptr, ptr, i32, i64, i64, ptr, ...) @H5E_printf_stack(ptr noundef @.str, ptr noundef @__func__.H5G__dense_get_name_by_idx_bt2_cb, i32 noundef 1050, i64 noundef %36, i64 noundef %37, ptr noundef @.str.41)
  br label %39

39:                                               ; preds = %35
  store i8 1, ptr %9, align 1
  %40 = load i8, ptr %9, align 1
  %41 = trunc i8 %40 to i1
  %42 = zext i1 %41 to i8
  store i8 %42, ptr %9, align 1
  br label %43

43:                                               ; preds = %39
  br label %44

44:                                               ; preds = %43
  store i32 -1, ptr %8, align 4
  br label %52

45:                                               ; No predecessors!
  br label %46

46:                                               ; preds = %45
  br label %47

47:                                               ; preds = %46, %2
  %48 = getelementptr inbounds %struct.H5G_fh_ud_gnbi_t, ptr %7, i32 0, i32 3
  %49 = load i64, ptr %48, align 8
  %50 = load ptr, ptr %6, align 8
  %51 = getelementptr inbounds %struct.H5G_bt2_ud_gnbi_t, ptr %50, i32 0, i32 4
  store i64 %49, ptr %51, align 8
  br label %52

52:                                               ; preds = %47, %44
  %53 = load i32, ptr %8, align 4
  ret i32 %53
}