; Function Attrs: nounwind uwtable
define internal range(i32 -1, 1) i32 @H5G__dense_get_name_by_idx_bt2_cb(ptr noundef %0, ptr nocapture noundef %1) #0 {
  %3 = alloca %struct.H5G_fh_ud_gnbi_t, align 8
  %4 = load ptr, ptr %1, align 8
  store ptr %4, ptr %3, align 8
  %5 = getelementptr inbounds i8, ptr %1, i64 16
  %6 = load ptr, ptr %5, align 8
  %7 = getelementptr inbounds i8, ptr %3, i64 8
  store ptr %6, ptr %7, align 8
  %8 = getelementptr inbounds i8, ptr %1, i64 24
  %9 = load i64, ptr %8, align 8
  %10 = getelementptr inbounds i8, ptr %3, i64 16
  store i64 %9, ptr %10, align 8
  %11 = getelementptr inbounds i8, ptr %1, i64 8
  %12 = load ptr, ptr %11, align 8
  %13 = call i32 @H5HF_op(ptr noundef %12, ptr noundef %0, ptr noundef nonnull @H5G__dense_get_name_by_idx_fh_cb, ptr noundef nonnull %3) #8
  %14 = icmp slt i32 %13, 0
  br i1 %14, label %15, label %19

15:                                               ; preds = %2
  %16 = load i64, ptr @H5E_SYM_g, align 8
  %17 = load i64, ptr @H5E_CANTOPERATE_g, align 8
  %18 = call i32 (ptr, ptr, i32, i64, i64, ptr, ...) @H5E_printf_stack(ptr noundef nonnull @.str, ptr noundef nonnull @__func__.H5G__dense_get_name_by_idx_bt2_cb, i32 noundef 1050, i64 noundef %16, i64 noundef %17, ptr noundef nonnull @.str.41) #8
  br label %23

19:                                               ; preds = %2
  %20 = getelementptr inbounds i8, ptr %3, i64 24
  %21 = load i64, ptr %20, align 8
  %22 = getelementptr inbounds i8, ptr %1, i64 32
  store i64 %21, ptr %22, align 8
  br label %23

23:                                               ; preds = %19, %15
  %.0 = phi i32 [ -1, %15 ], [ 0, %19 ]
  ret i32 %.0
}